target datalayout = "e-m:e-p270:32:32-p271:32:32-p272:64:64-i64:64-i128:128-f80:128-n8:16:32:64-S128"
target triple = "x86_64-pc-linux-gnu"

%struct.CMajEnvVPSC = type { ptr, i32, i32, i32, ptr, i32, i32, ptr, ptr, ptr, ptr, ptr, ptr }

; Function Attrs: nounwind uwtable
define void @deleteCMajEnvVPSC(ptr noundef %0) #0 {
  %2 = alloca ptr, align 8
  %3 = alloca i32, align 4
  store ptr %0, ptr %2, align 8, !tbaa !3
  call void @llvm.lifetime.start.p0(i64 4, ptr %3) #9
  %4 = load ptr, ptr %2, align 8, !tbaa !3
  %5 = getelementptr inbounds nuw %struct.CMajEnvVPSC, ptr %4, i32 0, i32 0
  %6 = load ptr, ptr %5, align 8, !tbaa !36
  %7 = icmp ne ptr %6, null
  br i1 %7, label %8, label %17

8:                                                ; preds = %1
  %9 = load ptr, ptr %2, align 8, !tbaa !3
  %10 = getelementptr inbounds nuw %struct.CMajEnvVPSC, ptr %9, i32 0, i32 0
  %11 = load ptr, ptr %10, align 8, !tbaa !36
  %12 = getelementptr inbounds ptr, ptr %11, i64 0
  %13 = load ptr, ptr %12, align 8, !tbaa !8
  call void @free(ptr noundef %13) #9
  %14 = load ptr, ptr %2, align 8, !tbaa !3
  %15 = getelementptr inbounds nuw %struct.CMajEnvVPSC, ptr %14, i32 0, i32 0
  %16 = load ptr, ptr %15, align 8, !tbaa !36
  call void @free(ptr noundef %16) #9
  br label %17

17:                                               ; preds = %8, %1
  %18 = load ptr, ptr %2, align 8, !tbaa !3
  %19 = getelementptr inbounds nuw %struct.CMajEnvVPSC, ptr %18, i32 0, i32 5
  %20 = load i32, ptr %19, align 8, !tbaa !24
  %21 = icmp sgt i32 %20, 0
  br i1 %21, label %22, label %78

22:                                               ; preds = %17
  %23 = load ptr, ptr %2, align 8, !tbaa !3
  %24 = getelementptr inbounds nuw %struct.CMajEnvVPSC, ptr %23, i32 0, i32 9
  %25 = load ptr, ptr %24, align 8, !tbaa !32
  call void @deleteVPSC(ptr noundef %25)
  %26 = load ptr, ptr %2, align 8, !tbaa !3
  %27 = getelementptr inbounds nuw %struct.CMajEnvVPSC, ptr %26, i32 0, i32 7
  %28 = load ptr, ptr %27, align 8, !tbaa !99
  %29 = load ptr, ptr %2, align 8, !tbaa !3
  %30 = getelementptr inbounds nuw %struct.CMajEnvVPSC, ptr %29, i32 0, i32 8
  %31 = load ptr, ptr %30, align 8, !tbaa !61
  %32 = icmp ne ptr %28, %31
  br i1 %32, label %33, label %42

33:                                               ; preds = %22
  %34 = load ptr, ptr %2, align 8, !tbaa !3
  %35 = getelementptr inbounds nuw %struct.CMajEnvVPSC, ptr %34, i32 0, i32 8
  %36 = load ptr, ptr %35, align 8, !tbaa !61
  %37 = icmp ne ptr %36, null
  br i1 %37, label %38, label %42

38:                                               ; preds = %33
  %39 = load ptr, ptr %2, align 8, !tbaa !3
  %40 = getelementptr inbounds nuw %struct.CMajEnvVPSC, ptr %39, i32 0, i32 8
  %41 = load ptr, ptr %40, align 8, !tbaa !61
  call void @deleteConstraints(i32 noundef 0, ptr noundef %41)
  br label %42

42:                                               ; preds = %38, %33, %22
  %43 = load ptr, ptr %2, align 8, !tbaa !3
  %44 = getelementptr inbounds nuw %struct.CMajEnvVPSC, ptr %43, i32 0, i32 5
  %45 = load i32, ptr %44, align 8, !tbaa !24
  %46 = load ptr, ptr %2, align 8, !tbaa !3
  %47 = getelementptr inbounds nuw %struct.CMajEnvVPSC, ptr %46, i32 0, i32 7
  %48 = load ptr, ptr %47, align 8, !tbaa !99
  call void @deleteConstraints(i32 noundef %45, ptr noundef %48)
  store i32 0, ptr %3, align 4, !tbaa !10
  br label %49

49:                                               ; preds = %71, %42
  %50 = load i32, ptr %3, align 4, !tbaa !10
  %51 = load ptr, ptr %2, align 8, !tbaa !3
  %52 = getelementptr inbounds nuw %struct.CMajEnvVPSC, ptr %51, i32 0, i32 1
  %53 = load i32, ptr %52, align 8, !tbaa !12
  %54 = load ptr, ptr %2, align 8, !tbaa !3
  %55 = getelementptr inbounds nuw %struct.CMajEnvVPSC, ptr %54, i32 0, i32 2
  %56 = load i32, ptr %55, align 4, !tbaa !18
  %57 = add nsw i32 %53, %56
  %58 = load ptr, ptr %2, align 8, !tbaa !3
  %59 = getelementptr inbounds nuw %struct.CMajEnvVPSC, ptr %58, i32 0, i32 3
  %60 = load i32, ptr %59, align 8, !tbaa !60
  %61 = add nsw i32 %57, %60
  %62 = icmp slt i32 %50, %61
  br i1 %62, label %63, label %74

63:                                               ; preds = %49
  %64 = load ptr, ptr %2, align 8, !tbaa !3
  %65 = getelementptr inbounds nuw %struct.CMajEnvVPSC, ptr %64, i32 0, i32 4
  %66 = load ptr, ptr %65, align 8, !tbaa !25
  %67 = load i32, ptr %3, align 4, !tbaa !10
  %68 = sext i32 %67 to i64
  %69 = getelementptr inbounds ptr, ptr %66, i64 %68
  %70 = load ptr, ptr %69, align 8, !tbaa !26
  call void @deleteVariable(ptr noundef %70)
  br label %71

71:                                               ; preds = %63
  %72 = load i32, ptr %3, align 4, !tbaa !10
  %73 = add nsw i32 %72, 1
  store i32 %73, ptr %3, align 4, !tbaa !10
  br label %49, !llvm.loop !105

74:                                               ; preds = %49
  %75 = load ptr, ptr %2, align 8, !tbaa !3
  %76 = getelementptr inbounds nuw %struct.CMajEnvVPSC, ptr %75, i32 0, i32 4
  %77 = load ptr, ptr %76, align 8, !tbaa !25
  call void @free(ptr noundef %77) #9
  br label %78

78:                                               ; preds = %74, %17
  %79 = load ptr, ptr %2, align 8, !tbaa !3
  %80 = getelementptr inbounds nuw %struct.CMajEnvVPSC, ptr %79, i32 0, i32 10
  %81 = load ptr, ptr %80, align 8, !tbaa !21
  call void @free(ptr noundef %81) #9
  %82 = load ptr, ptr %2, align 8, !tbaa !3
  %83 = getelementptr inbounds nuw %struct.CMajEnvVPSC, ptr %82, i32 0, i32 11
  %84 = load ptr, ptr %83, align 8, !tbaa !22
  call void @free(ptr noundef %84) #9
  %85 = load ptr, ptr %2, align 8, !tbaa !3
  %86 = getelementptr inbounds nuw %struct.CMajEnvVPSC, ptr %85, i32 0, i32 12
  %87 = load ptr, ptr %86, align 8, !tbaa !23
  call void @free(ptr noundef %87) #9
  %88 = load ptr, ptr %2, align 8, !tbaa !3
  call void @free(ptr noundef %88) #9
  call void @llvm.lifetime.end.p0(i64 4, ptr %3) #9
  ret void
}