; Function Attrs: nounwind uwtable
define void @deleteCMajEnvVPSC(ptr noundef captures(none) %0) local_unnamed_addr #0 {
  %2 = load ptr, ptr %0, align 8, !tbaa !28
  %.not = icmp eq ptr %2, null
  br i1 %.not, label %6, label %3

3:                                                ; preds = %1
  %4 = load ptr, ptr %2, align 8, !tbaa !29
  tail call void @free(ptr noundef %4) #14
  %5 = load ptr, ptr %0, align 8, !tbaa !28
  tail call void @free(ptr noundef %5) #14
  br label %6

6:                                                ; preds = %3, %1
  %7 = getelementptr inbounds nuw i8, ptr %0, i64 32
  %8 = load i32, ptr %7, align 8, !tbaa !18
  %9 = icmp sgt i32 %8, 0
  br i1 %9, label %10, label %44

10:                                               ; preds = %6
  %11 = getelementptr inbounds nuw i8, ptr %0, i64 56
  %12 = load ptr, ptr %11, align 8, !tbaa !19
  tail call void @deleteVPSC(ptr noundef %12) #14
  %13 = getelementptr inbounds nuw i8, ptr %0, i64 40
  %14 = load ptr, ptr %13, align 8, !tbaa !87
  %15 = getelementptr inbounds nuw i8, ptr %0, i64 48
  %16 = load ptr, ptr %15, align 8, !tbaa !61
  %.not24 = icmp eq ptr %14, %16
  %.not25 = icmp eq ptr %16, null
  %or.cond = or i1 %.not24, %.not25
  br i1 %or.cond, label %18, label %17

17:                                               ; preds = %10
  tail call void @deleteConstraints(i32 noundef 0, ptr noundef nonnull %16) #14
  %.pre = load ptr, ptr %13, align 8, !tbaa !87
  br label %18

18:                                               ; preds = %17, %10
  %19 = phi ptr [ %.pre, %17 ], [ %14, %10 ]
  %20 = load i32, ptr %7, align 8, !tbaa !18
  tail call void @deleteConstraints(i32 noundef %20, ptr noundef %19) #14
  %21 = getelementptr inbounds nuw i8, ptr %0, i64 8
  %22 = getelementptr inbounds nuw i8, ptr %0, i64 12
  %23 = getelementptr inbounds nuw i8, ptr %0, i64 16
  %24 = load i32, ptr %21, align 8, !tbaa !3
  %25 = load i32, ptr %22, align 4, !tbaa !14
  %26 = add nsw i32 %25, %24
  %27 = load i32, ptr %23, align 8, !tbaa !70
  %28 = add nsw i32 %26, %27
  %29 = icmp sgt i32 %28, 0
  br i1 %29, label %.lr.ph, label %._crit_edge

.lr.ph:                                           ; preds = %18
  %30 = getelementptr inbounds nuw i8, ptr %0, i64 24
  br label %31

31:                                               ; preds = %.lr.ph, %31
  %indvars.iv = phi i64 [ 0, %.lr.ph ], [ %indvars.iv.next, %31 ]
  %32 = load ptr, ptr %30, align 8, !tbaa !20
  %33 = getelementptr inbounds nuw ptr, ptr %32, i64 %indvars.iv
  %34 = load ptr, ptr %33, align 8, !tbaa !21
  tail call void @deleteVariable(ptr noundef %34) #14
  %indvars.iv.next = add nuw nsw i64 %indvars.iv, 1
  %35 = load i32, ptr %21, align 8, !tbaa !3
  %36 = load i32, ptr %22, align 4, !tbaa !14
  %37 = add nsw i32 %36, %35
  %38 = load i32, ptr %23, align 8, !tbaa !70
  %39 = add nsw i32 %37, %38
  %40 = sext i32 %39 to i64
  %41 = icmp slt i64 %indvars.iv.next, %40
  br i1 %41, label %31, label %._crit_edge, !llvm.loop !89

._crit_edge:                                      ; preds = %31, %18
  %42 = getelementptr inbounds nuw i8, ptr %0, i64 24
  %43 = load ptr, ptr %42, align 8, !tbaa !20
  tail call void @free(ptr noundef %43) #14
  br label %44

44:                                               ; preds = %._crit_edge, %6
  %45 = getelementptr inbounds nuw i8, ptr %0, i64 64
  %46 = load ptr, ptr %45, align 8, !tbaa !15
  tail call void @free(ptr noundef %46) #14
  %47 = getelementptr inbounds nuw i8, ptr %0, i64 72
  %48 = load ptr, ptr %47, align 8, !tbaa !16
  tail call void @free(ptr noundef %48) #14
  %49 = getelementptr inbounds nuw i8, ptr %0, i64 80
  %50 = load ptr, ptr %49, align 8, !tbaa !17
  tail call void @free(ptr noundef %50) #14
  tail call void @free(ptr noundef nonnull %0) #14
  ret void
}